(dp1
I123498761
(lp2
S'Heinz'
p3
aS'Schmitt'
p4
aF1
asI123498762
(lp5
S'Maria'
p6
aS'Kunz'
p7
aF3
asI123498764
(lp8
S'Lise'
p9
aS'Meier'
p10
aF2
asI123498765
(lp11
S'Max'
p12
aS'Mueller'
p13
aF1.3
asI12349878
(lp14
S'Anna'
p15
aS'Muster'
p16
aF1.7
asI12349879
(lp17
S'Karl'
p18
aS'Hinz'
p19
aF3.2999999999999998
as.