(dp1
S'SensorHygieneOben'
p2
F23.437000000000001
sS'SensorTemperaturMischerKeller'
p3
F23.25
sS'SensorHygieneUnten'
p4
F22.812000000000001
sS'SensorPufferKellerOben'
p5
F23.062000000000001
sS'SensorAussentemperatur'
p6
F23.062000000000001
sS'SensorHygieneMitte'
p7
F23
sS'SensorPufferKellerUnten'
p8
F23.125
sS'SensorPufferHeizraumOben'
p9
F23.25
s.